#include <math.h>
#include <stdio.h>
#include <stdlib.h>
#include <string.h>

int main()
{
	int n,k,i,sz[1000],a=0,tmp,j;
	scanf("%d %d",&n,&k);
	for(i=0;i<n;i++)
		scanf("%d",&sz[i]);
	for(j=1;j<n;j++)
	{
	 for(i=0;i<n;i++)
	 {
		if(sz[i]+sz[i+1]==k)
		    a++;
	    tmp=sz[i+1];
		sz[i+1]=sz[i];
		sz[i]=tmp;

	 }
	}
	if(a!=0)
		printf("yes");
	else
		printf("no");
	



  return 0;
}
